; Function Attrs: mustprogress uwtable
define void @_ZN16PickPointsDialog26clearTemplateButtonClickedEv(ptr noundef nonnull align 8 dereferenceable(464) %0) local_unnamed_addr #9 align 2 personality ptr @__gxx_personality_v0 {
  %2 = alloca %class.QMessageBox, align 8
  %3 = alloca %class.QString, align 8
  %4 = alloca %class.QString, align 8
  %5 = tail call noundef ptr @_ZN7QString16fromAscii_helperEPKci(ptr noundef nonnull @.str.120, i32 noundef 11)
  store ptr %5, ptr %3, align 8
  %6 = invoke noundef ptr @_ZN7QString16fromAscii_helperEPKci(ptr noundef nonnull @.str.122, i32 noundef 66)
          to label %7 unwind label %21

7:                                                ; preds = %1
  store ptr %6, ptr %4, align 8
  invoke void @_ZN11QMessageBoxC1ENS_4IconERK7QStringS3_6QFlagsINS_14StandardButtonEEP7QWidgetS4_IN2Qt10WindowTypeEE(ptr noundef nonnull align 8 dereferenceable(48) %2, i32 noundef 4, ptr noundef nonnull align 8 dereferenceable(8) %3, ptr noundef nonnull align 8 dereferenceable(8) %4, i32 81920, ptr noundef nonnull %0, i32 259)
          to label %8 unwind label %23

8:                                                ; preds = %7
  %9 = load ptr, ptr %4, align 8
  %10 = load atomic i32, ptr %9 monotonic, align 4
  switch i32 %10, label %_ZN9QtPrivate8RefCount5derefEv.exit.i [
    i32 0, label %_ZN9QtPrivate8RefCount5derefEv.exit.thread2.i
    i32 -1, label %_ZN7QStringD2Ev.exit
  ]

_ZN9QtPrivate8RefCount5derefEv.exit.i:            ; preds = %8
  %11 = atomicrmw sub ptr %9, i32 1 seq_cst, align 4
  %.not.i = icmp eq i32 %11, 1
  br i1 %.not.i, label %_ZN9QtPrivate8RefCount5derefEv.exit._ZN9QtPrivate8RefCount5derefEv.exit.thread2_crit_edge.i, label %_ZN7QStringD2Ev.exit

_ZN9QtPrivate8RefCount5derefEv.exit._ZN9QtPrivate8RefCount5derefEv.exit.thread2_crit_edge.i: ; preds = %_ZN9QtPrivate8RefCount5derefEv.exit.i
  %.pre.i = load ptr, ptr %4, align 8
  br label %_ZN9QtPrivate8RefCount5derefEv.exit.thread2.i

_ZN9QtPrivate8RefCount5derefEv.exit.thread2.i:    ; preds = %_ZN9QtPrivate8RefCount5derefEv.exit._ZN9QtPrivate8RefCount5derefEv.exit.thread2_crit_edge.i, %8
  %12 = phi ptr [ %.pre.i, %_ZN9QtPrivate8RefCount5derefEv.exit._ZN9QtPrivate8RefCount5derefEv.exit.thread2_crit_edge.i ], [ %9, %8 ]
  call void @_ZN10QArrayData10deallocateEPS_mm(ptr noundef %12, i64 noundef 2, i64 noundef 8) #27
  br label %_ZN7QStringD2Ev.exit

_ZN7QStringD2Ev.exit:                             ; preds = %8, %_ZN9QtPrivate8RefCount5derefEv.exit.i, %_ZN9QtPrivate8RefCount5derefEv.exit.thread2.i
  %13 = load ptr, ptr %3, align 8
  %14 = load atomic i32, ptr %13 monotonic, align 4
  switch i32 %14, label %_ZN9QtPrivate8RefCount5derefEv.exit.i10 [
    i32 0, label %_ZN9QtPrivate8RefCount5derefEv.exit.thread2.i9
    i32 -1, label %_ZN7QStringD2Ev.exit14
  ]

_ZN9QtPrivate8RefCount5derefEv.exit.i10:          ; preds = %_ZN7QStringD2Ev.exit
  %15 = atomicrmw sub ptr %13, i32 1 seq_cst, align 4
  %.not.i11 = icmp eq i32 %15, 1
  br i1 %.not.i11, label %_ZN9QtPrivate8RefCount5derefEv.exit._ZN9QtPrivate8RefCount5derefEv.exit.thread2_crit_edge.i12, label %_ZN7QStringD2Ev.exit14

_ZN9QtPrivate8RefCount5derefEv.exit._ZN9QtPrivate8RefCount5derefEv.exit.thread2_crit_edge.i12: ; preds = %_ZN9QtPrivate8RefCount5derefEv.exit.i10
  %.pre.i13 = load ptr, ptr %3, align 8
  br label %_ZN9QtPrivate8RefCount5derefEv.exit.thread2.i9

_ZN9QtPrivate8RefCount5derefEv.exit.thread2.i9:   ; preds = %_ZN9QtPrivate8RefCount5derefEv.exit._ZN9QtPrivate8RefCount5derefEv.exit.thread2_crit_edge.i12, %_ZN7QStringD2Ev.exit
  %16 = phi ptr [ %.pre.i13, %_ZN9QtPrivate8RefCount5derefEv.exit._ZN9QtPrivate8RefCount5derefEv.exit.thread2_crit_edge.i12 ], [ %13, %_ZN7QStringD2Ev.exit ]
  call void @_ZN10QArrayData10deallocateEPS_mm(ptr noundef %16, i64 noundef 2, i64 noundef 8) #27
  br label %_ZN7QStringD2Ev.exit14

_ZN7QStringD2Ev.exit14:                           ; preds = %_ZN7QStringD2Ev.exit, %_ZN9QtPrivate8RefCount5derefEv.exit.i10, %_ZN9QtPrivate8RefCount5derefEv.exit.thread2.i9
  %17 = invoke noundef i32 @_ZN7QDialog4execEv(ptr noundef nonnull align 8 dereferenceable(48) %2)
          to label %18 unwind label %26

18:                                               ; preds = %_ZN7QStringD2Ev.exit14
  %19 = icmp eq i32 %17, 16384
  br i1 %19, label %20, label %28

20:                                               ; preds = %18
  invoke void @_ZN16PickPointsDialog13clearTemplateEv(ptr noundef nonnull align 8 dereferenceable(464) %0)
          to label %28 unwind label %26

21:                                               ; preds = %1
  %22 = landingpad { ptr, i32 }
          cleanup
  br label %25

23:                                               ; preds = %7
  %24 = landingpad { ptr, i32 }
          cleanup
  call void @_ZN7QStringD2Ev(ptr noundef nonnull align 8 dereferenceable(8) %4) #27
  br label %25

25:                                               ; preds = %23, %21
  %.pn = phi { ptr, i32 } [ %24, %23 ], [ %22, %21 ]
  call void @_ZN7QStringD2Ev(ptr noundef nonnull align 8 dereferenceable(8) %3) #27
  br label %29

26:                                               ; preds = %20, %_ZN7QStringD2Ev.exit14
  %27 = landingpad { ptr, i32 }
          cleanup
  call void @_ZN11QMessageBoxD1Ev(ptr noundef nonnull align 8 dereferenceable(48) %2) #27
  br label %29

28:                                               ; preds = %20, %18
  call void @_ZN11QMessageBoxD1Ev(ptr noundef nonnull align 8 dereferenceable(48) %2) #27
  ret void

29:                                               ; preds = %26, %25
  %.pn7 = phi { ptr, i32 } [ %27, %26 ], [ %.pn, %25 ]
  resume { ptr, i32 } %.pn7
}